; Function Attrs: mustprogress uwtable
define internal fastcc void @_ZN3gmx12_GLOBAL__N_117KeywordsHelpTopic19writeKeywordListEndERKNS_17HelpWriterContextEPKc(ptr noundef nonnull align 8 dereferenceable(8) %0, ptr noundef %1) unnamed_addr #0 align 2 personality ptr @__gxx_personality_v0 {
  %3 = alloca %"class.std::__cxx11::basic_string", align 8
  %4 = alloca %"class.std::allocator", align 1
  %5 = tail call noundef i32 @_ZNK3gmx17HelpWriterContext12outputFormatEv(ptr noundef nonnull align 8 dereferenceable(8) %0)
  %6 = icmp eq i32 %5, 1
  br i1 %6, label %7, label %8

7:                                                ; preds = %2
  tail call void @_ZNK3gmx17HelpWriterContext14paragraphBreakEv(ptr noundef nonnull align 8 dereferenceable(8) %0)
  br label %8

8:                                                ; preds = %7, %2
  %9 = icmp eq ptr %1, null
  br i1 %9, label %_ZN3gmxL13isNullOrEmptyEPKc.exit.thread, label %_ZN3gmxL13isNullOrEmptyEPKc.exit

_ZN3gmxL13isNullOrEmptyEPKc.exit:                 ; preds = %8
  %10 = load i8, ptr %1, align 1
  %11 = icmp eq i8 %10, 0
  br i1 %11, label %_ZN3gmxL13isNullOrEmptyEPKc.exit.thread, label %12

12:                                               ; preds = %_ZN3gmxL13isNullOrEmptyEPKc.exit
  call void @_ZNSaIcEC1Ev(ptr noundef nonnull align 1 dereferenceable(1) %4) #17
  %13 = invoke noundef ptr @_ZNSt7__cxx1112basic_stringIcSt11char_traitsIcESaIcEE13_M_local_dataEv(ptr noundef nonnull align 8 dereferenceable(32) %3)
          to label %.noexc unwind label %19

.noexc:                                           ; preds = %12
  invoke void @_ZNSt7__cxx1112basic_stringIcSt11char_traitsIcESaIcEE12_Alloc_hiderC1EPcRKS3_(ptr noundef nonnull align 8 dereferenceable(8) %3, ptr noundef %13, ptr noundef nonnull align 1 dereferenceable(1) %4)
          to label %.noexc8 unwind label %19

.noexc8:                                          ; preds = %.noexc
  invoke void @_ZNSt7__cxx1112basic_stringIcSt11char_traitsIcESaIcEE12_M_constructIPKcEEvT_S8_St20forward_iterator_tag(ptr noundef nonnull align 8 dereferenceable(32) %3, ptr noundef nonnull @.str.184, ptr noundef nonnull getelementptr inbounds ([3 x i8], ptr @.str.184, i64 0, i64 2))
          to label %_ZNSt7__cxx1112basic_stringIcSt11char_traitsIcESaIcEEC2IS3_EEPKcRKS3_.exit unwind label %14

14:                                               ; preds = %.noexc8
  %15 = landingpad { ptr, i32 }
          cleanup
  call void @_ZNSaIcED2Ev(ptr noundef nonnull align 1 dereferenceable(1) %3) #17
  br label %.body

_ZNSt7__cxx1112basic_stringIcSt11char_traitsIcESaIcEEC2IS3_EEPKcRKS3_.exit: ; preds = %.noexc8
  call void @_ZNSaIcED1Ev(ptr noundef nonnull align 1 dereferenceable(1) %4) #17
  %16 = invoke noundef nonnull align 8 dereferenceable(32) ptr @_ZNSt7__cxx1112basic_stringIcSt11char_traitsIcESaIcEE6appendEPKc(ptr noundef nonnull align 8 dereferenceable(32) %3, ptr noundef nonnull %1)
          to label %17 unwind label %21

17:                                               ; preds = %_ZNSt7__cxx1112basic_stringIcSt11char_traitsIcESaIcEEC2IS3_EEPKcRKS3_.exit
  invoke void @_ZNK3gmx17HelpWriterContext14writeTextBlockERKNSt7__cxx1112basic_stringIcSt11char_traitsIcESaIcEEE(ptr noundef nonnull align 8 dereferenceable(8) %0, ptr noundef nonnull align 8 dereferenceable(32) %3)
          to label %18 unwind label %21

18:                                               ; preds = %17
  call void @_ZNSt7__cxx1112basic_stringIcSt11char_traitsIcESaIcEED1Ev(ptr noundef nonnull align 8 dereferenceable(32) %3) #17
  br label %_ZN3gmxL13isNullOrEmptyEPKc.exit.thread

19:                                               ; preds = %.noexc, %12
  %20 = landingpad { ptr, i32 }
          cleanup
  br label %.body

.body:                                            ; preds = %14, %19
  %eh.lpad-body = phi { ptr, i32 } [ %20, %19 ], [ %15, %14 ]
  call void @_ZNSaIcED1Ev(ptr noundef nonnull align 1 dereferenceable(1) %4) #17
  br label %23

21:                                               ; preds = %17, %_ZNSt7__cxx1112basic_stringIcSt11char_traitsIcESaIcEEC2IS3_EEPKcRKS3_.exit
  %22 = landingpad { ptr, i32 }
          cleanup
  call void @_ZNSt7__cxx1112basic_stringIcSt11char_traitsIcESaIcEED1Ev(ptr noundef nonnull align 8 dereferenceable(32) %3) #17
  br label %23

_ZN3gmxL13isNullOrEmptyEPKc.exit.thread:          ; preds = %8, %18, %_ZN3gmxL13isNullOrEmptyEPKc.exit
  ret void

23:                                               ; preds = %21, %.body
  %.pn = phi { ptr, i32 } [ %22, %21 ], [ %eh.lpad-body, %.body ]
  resume { ptr, i32 } %.pn
}